; Function Attrs: mustprogress nofree nounwind uwtable
define void @_ZNK5faiss11IndexBinary7displayEv(ptr nocapture noundef nonnull readonly align 8 dereferenceable(32) %0) local_unnamed_addr #14 align 2 {
  %2 = load ptr, ptr %0, align 8
  %3 = getelementptr inbounds i8, ptr %2, i64 -8
  %4 = load ptr, ptr %3, align 8
  %5 = getelementptr inbounds i8, ptr %4, i64 8
  %6 = load ptr, ptr %5, align 8
  %7 = load i8, ptr %6, align 1
  %8 = icmp eq i8 %7, 42
  %.idx.i = zext i1 %8 to i64
  %9 = getelementptr inbounds i8, ptr %6, i64 %.idx.i
  %10 = getelementptr inbounds i8, ptr %0, i64 16
  %11 = load i64, ptr %10, align 8
  %12 = tail call i32 (ptr, ...) @printf(ptr noundef nonnull dereferenceable(1) @.str.10, ptr noundef nonnull %9, i64 noundef %11)
  ret void
}